target datalayout = "e-m:e-p270:32:32-p271:32:32-p272:64:64-i64:64-i128:128-f80:128-n8:16:32:64-S128"
target triple = "x86_64-pc-linux-gnu"

%struct.xorkey_st = type { [32 x i8], [32 x i8], i32, i32, ptr, %struct.CRYPTO_REF_COUNT }
%struct.CRYPTO_REF_COUNT = type { i32 }
%struct.PROV_XORSIG_CTX = type { ptr, ptr, ptr, i8, [50 x i8], ptr, i64, ptr, ptr, i32 }

@.str.2 = private unnamed_addr constant [31 x i8] c"../openssl/test/tls-provider.c\00", align 1

; Function Attrs: inlinehint nounwind uwtable
define internal i32 @CRYPTO_UP_REF(ptr noundef %0, ptr noundef %1) #3 {
  %3 = alloca ptr, align 8
  %4 = alloca ptr, align 8
  %5 = alloca i32, align 4
  %6 = alloca i32, align 4
  store ptr %0, ptr %3, align 8, !tbaa !13
  store ptr %1, ptr %4, align 8, !tbaa !33
  %7 = load ptr, ptr %3, align 8, !tbaa !13
  %8 = getelementptr inbounds nuw %struct.CRYPTO_REF_COUNT, ptr %7, i32 0, i32 0
  store i32 1, ptr %5, align 4, !tbaa !27
  %9 = load i32, ptr %5, align 4
  %10 = atomicrmw add ptr %8, i32 %9 monotonic, align 4
  store i32 %10, ptr %6, align 4
  %11 = load i32, ptr %6, align 4, !tbaa !27
  %12 = add nsw i32 %11, 1
  %13 = load ptr, ptr %4, align 8, !tbaa !33
  store i32 %12, ptr %13, align 4, !tbaa !27
  ret i32 1
}

; Function Attrs: nounwind uwtable
define internal i32 @xor_key_up_ref(ptr noundef %0) #0 {
  %2 = alloca i32, align 4
  %3 = alloca ptr, align 8
  %4 = alloca i32, align 4
  %5 = alloca i32, align 4
  store ptr %0, ptr %3, align 8, !tbaa !41
  call void @llvm.lifetime.start.p0(i64 4, ptr %4) #8
  %6 = load ptr, ptr %3, align 8, !tbaa !41
  %7 = getelementptr inbounds nuw %struct.xorkey_st, ptr %6, i32 0, i32 5
  %8 = call i32 @CRYPTO_UP_REF(ptr noundef %7, ptr noundef %4)
  %9 = icmp sle i32 %8, 0
  br i1 %9, label %10, label %11

10:                                               ; preds = %1
  store i32 0, ptr %2, align 4
  store i32 1, ptr %5, align 4
  br label %15

11:                                               ; preds = %1
  %12 = load i32, ptr %4, align 4, !tbaa !27
  %13 = icmp sgt i32 %12, 1
  %14 = zext i1 %13 to i32
  store i32 %14, ptr %2, align 4
  store i32 1, ptr %5, align 4
  br label %15

15:                                               ; preds = %11, %10
  call void @llvm.lifetime.end.p0(i64 4, ptr %4) #8
  %16 = load i32, ptr %2, align 4
  ret i32 %16
}

; Function Attrs: nounwind uwtable
define internal ptr @xor_sig_dupctx(ptr noundef %0) #0 {
  %2 = alloca ptr, align 8
  %3 = alloca ptr, align 8
  %4 = alloca ptr, align 8
  %5 = alloca ptr, align 8
  %6 = alloca i32, align 4
  store ptr %0, ptr %3, align 8, !tbaa !13
  call void @llvm.lifetime.start.p0(i64 8, ptr %4) #8
  %7 = load ptr, ptr %3, align 8, !tbaa !13
  store ptr %7, ptr %4, align 8, !tbaa !13
  call void @llvm.lifetime.start.p0(i64 8, ptr %5) #8
  %8 = call noalias ptr @CRYPTO_zalloc(i64 noundef 120, ptr noundef @.str.2, i32 noundef 2937)
  store ptr %8, ptr %5, align 8, !tbaa !13
  %9 = load ptr, ptr %5, align 8, !tbaa !13
  %10 = icmp eq ptr %9, null
  br i1 %10, label %11, label %12

11:                                               ; preds = %1
  store ptr null, ptr %2, align 8
  store i32 1, ptr %6, align 4
  br label %84

12:                                               ; preds = %1
  %13 = load ptr, ptr %5, align 8, !tbaa !13
  %14 = load ptr, ptr %4, align 8, !tbaa !13
  call void @llvm.memcpy.p0.p0.i64(ptr align 8 %13, ptr align 8 %14, i64 120, i1 false), !tbaa.struct !150
  %15 = load ptr, ptr %5, align 8, !tbaa !13
  %16 = getelementptr inbounds nuw %struct.PROV_XORSIG_CTX, ptr %15, i32 0, i32 2
  store ptr null, ptr %16, align 8, !tbaa !145
  %17 = load ptr, ptr %5, align 8, !tbaa !13
  %18 = getelementptr inbounds nuw %struct.PROV_XORSIG_CTX, ptr %17, i32 0, i32 7
  store ptr null, ptr %18, align 8, !tbaa !148
  %19 = load ptr, ptr %5, align 8, !tbaa !13
  %20 = getelementptr inbounds nuw %struct.PROV_XORSIG_CTX, ptr %19, i32 0, i32 8
  store ptr null, ptr %20, align 8, !tbaa !147
  %21 = load ptr, ptr %5, align 8, !tbaa !13
  %22 = getelementptr inbounds nuw %struct.PROV_XORSIG_CTX, ptr %21, i32 0, i32 5
  store ptr null, ptr %22, align 8, !tbaa !149
  %23 = load ptr, ptr %4, align 8, !tbaa !13
  %24 = getelementptr inbounds nuw %struct.PROV_XORSIG_CTX, ptr %23, i32 0, i32 2
  %25 = load ptr, ptr %24, align 8, !tbaa !145
  %26 = icmp ne ptr %25, null
  br i1 %26, label %27, label %34

27:                                               ; preds = %12
  %28 = load ptr, ptr %4, align 8, !tbaa !13
  %29 = getelementptr inbounds nuw %struct.PROV_XORSIG_CTX, ptr %28, i32 0, i32 2
  %30 = load ptr, ptr %29, align 8, !tbaa !145
  %31 = call i32 @xor_key_up_ref(ptr noundef %30)
  %32 = icmp ne i32 %31, 0
  br i1 %32, label %34, label %33

33:                                               ; preds = %27
  br label %82

34:                                               ; preds = %27, %12
  %35 = load ptr, ptr %4, align 8, !tbaa !13
  %36 = getelementptr inbounds nuw %struct.PROV_XORSIG_CTX, ptr %35, i32 0, i32 2
  %37 = load ptr, ptr %36, align 8, !tbaa !145
  %38 = load ptr, ptr %5, align 8, !tbaa !13
  %39 = getelementptr inbounds nuw %struct.PROV_XORSIG_CTX, ptr %38, i32 0, i32 2
  store ptr %37, ptr %39, align 8, !tbaa !145
  %40 = load ptr, ptr %4, align 8, !tbaa !13
  %41 = getelementptr inbounds nuw %struct.PROV_XORSIG_CTX, ptr %40, i32 0, i32 7
  %42 = load ptr, ptr %41, align 8, !tbaa !148
  %43 = icmp ne ptr %42, null
  br i1 %43, label %44, label %51

44:                                               ; preds = %34
  %45 = load ptr, ptr %4, align 8, !tbaa !13
  %46 = getelementptr inbounds nuw %struct.PROV_XORSIG_CTX, ptr %45, i32 0, i32 7
  %47 = load ptr, ptr %46, align 8, !tbaa !148
  %48 = call i32 @EVP_MD_up_ref(ptr noundef %47)
  %49 = icmp ne i32 %48, 0
  br i1 %49, label %51, label %50

50:                                               ; preds = %44
  br label %82

51:                                               ; preds = %44, %34
  %52 = load ptr, ptr %4, align 8, !tbaa !13
  %53 = getelementptr inbounds nuw %struct.PROV_XORSIG_CTX, ptr %52, i32 0, i32 7
  %54 = load ptr, ptr %53, align 8, !tbaa !148
  %55 = load ptr, ptr %5, align 8, !tbaa !13
  %56 = getelementptr inbounds nuw %struct.PROV_XORSIG_CTX, ptr %55, i32 0, i32 7
  store ptr %54, ptr %56, align 8, !tbaa !148
  %57 = load ptr, ptr %4, align 8, !tbaa !13
  %58 = getelementptr inbounds nuw %struct.PROV_XORSIG_CTX, ptr %57, i32 0, i32 8
  %59 = load ptr, ptr %58, align 8, !tbaa !147
  %60 = icmp ne ptr %59, null
  br i1 %60, label %61, label %80

61:                                               ; preds = %51
  %62 = call ptr @EVP_MD_CTX_new()
  %63 = load ptr, ptr %5, align 8, !tbaa !13
  %64 = getelementptr inbounds nuw %struct.PROV_XORSIG_CTX, ptr %63, i32 0, i32 8
  store ptr %62, ptr %64, align 8, !tbaa !147
  %65 = load ptr, ptr %5, align 8, !tbaa !13
  %66 = getelementptr inbounds nuw %struct.PROV_XORSIG_CTX, ptr %65, i32 0, i32 8
  %67 = load ptr, ptr %66, align 8, !tbaa !147
  %68 = icmp eq ptr %67, null
  br i1 %68, label %78, label %69

69:                                               ; preds = %61
  %70 = load ptr, ptr %5, align 8, !tbaa !13
  %71 = getelementptr inbounds nuw %struct.PROV_XORSIG_CTX, ptr %70, i32 0, i32 8
  %72 = load ptr, ptr %71, align 8, !tbaa !147
  %73 = load ptr, ptr %4, align 8, !tbaa !13
  %74 = getelementptr inbounds nuw %struct.PROV_XORSIG_CTX, ptr %73, i32 0, i32 8
  %75 = load ptr, ptr %74, align 8, !tbaa !147
  %76 = call i32 @EVP_MD_CTX_copy_ex(ptr noundef %72, ptr noundef %75)
  %77 = icmp ne i32 %76, 0
  br i1 %77, label %79, label %78

78:                                               ; preds = %69, %61
  br label %82

79:                                               ; preds = %69
  br label %80

80:                                               ; preds = %79, %51
  %81 = load ptr, ptr %5, align 8, !tbaa !13
  store ptr %81, ptr %2, align 8
  store i32 1, ptr %6, align 4
  br label %84

82:                                               ; preds = %78, %50, %33
  %83 = load ptr, ptr %5, align 8, !tbaa !13
  call void @xor_sig_freectx(ptr noundef %83)
  store ptr null, ptr %2, align 8
  store i32 1, ptr %6, align 4
  br label %84

84:                                               ; preds = %82, %80, %11
  call void @llvm.lifetime.end.p0(i64 8, ptr %5) #8
  call void @llvm.lifetime.end.p0(i64 8, ptr %4) #8
  %85 = load ptr, ptr %2, align 8
  ret ptr %85
}