; Function Attrs: nounwind uwtable
define internal ptr @xor_sig_dupctx(ptr noundef readonly captures(none) %0) #0 {
  %2 = tail call noalias ptr @CRYPTO_zalloc(i64 noundef 120, ptr noundef nonnull @.str.2, i32 noundef 2937) #16
  %3 = icmp eq ptr %2, null
  br i1 %3, label %32, label %4

4:                                                ; preds = %1
  tail call void @llvm.memcpy.p0.p0.i64(ptr noundef nonnull align 8 dereferenceable(120) %2, ptr noundef nonnull align 8 dereferenceable(120) %0, i64 120, i1 false), !tbaa.struct !117
  %5 = getelementptr inbounds nuw i8, ptr %2, i64 16
  store ptr null, ptr %5, align 8, !tbaa !111
  %6 = getelementptr inbounds nuw i8, ptr %2, i64 96
  %7 = getelementptr inbounds nuw i8, ptr %2, i64 104
  %8 = getelementptr inbounds nuw i8, ptr %2, i64 80
  store ptr null, ptr %8, align 8, !tbaa !116
  %9 = getelementptr inbounds nuw i8, ptr %0, i64 16
  tail call void @llvm.memset.p0.i64(ptr noundef nonnull align 8 dereferenceable(16) %6, i8 0, i64 16, i1 false)
  %10 = load ptr, ptr %9, align 8, !tbaa !111
  %.not = icmp eq ptr %10, null
  br i1 %.not, label %15, label %11

11:                                               ; preds = %4
  %12 = getelementptr inbounds nuw i8, ptr %10, i64 80
  %13 = atomicrmw add ptr %12, i32 1 monotonic, align 4
  %14 = icmp slt i32 %13, 1
  br i1 %14, label %31, label %._crit_edge

._crit_edge:                                      ; preds = %11
  %.pre = load ptr, ptr %9, align 8, !tbaa !111
  br label %15

15:                                               ; preds = %._crit_edge, %4
  %16 = phi ptr [ %.pre, %._crit_edge ], [ null, %4 ]
  store ptr %16, ptr %5, align 8, !tbaa !111
  %17 = getelementptr inbounds nuw i8, ptr %0, i64 96
  %18 = load ptr, ptr %17, align 8, !tbaa !115
  %.not29 = icmp eq ptr %18, null
  br i1 %.not29, label %21, label %19

19:                                               ; preds = %15
  %20 = tail call i32 @EVP_MD_up_ref(ptr noundef nonnull %18) #16
  %.not30 = icmp eq i32 %20, 0
  br i1 %.not30, label %31, label %._crit_edge33

._crit_edge33:                                    ; preds = %19
  %.pre34 = load ptr, ptr %17, align 8, !tbaa !115
  br label %21

21:                                               ; preds = %._crit_edge33, %15
  %22 = phi ptr [ %.pre34, %._crit_edge33 ], [ null, %15 ]
  store ptr %22, ptr %6, align 8, !tbaa !115
  %23 = getelementptr inbounds nuw i8, ptr %0, i64 104
  %24 = load ptr, ptr %23, align 8, !tbaa !114
  %.not31 = icmp eq ptr %24, null
  br i1 %.not31, label %32, label %25

25:                                               ; preds = %21
  %26 = tail call ptr @EVP_MD_CTX_new() #16
  store ptr %26, ptr %7, align 8, !tbaa !114
  %27 = icmp eq ptr %26, null
  br i1 %27, label %31, label %28

28:                                               ; preds = %25
  %29 = load ptr, ptr %23, align 8, !tbaa !114
  %30 = tail call i32 @EVP_MD_CTX_copy_ex(ptr noundef nonnull %26, ptr noundef %29) #16
  %.not32 = icmp eq i32 %30, 0
  br i1 %.not32, label %31, label %32

31:                                               ; preds = %25, %28, %19, %11
  tail call void @xor_sig_freectx(ptr noundef nonnull %2)
  br label %32

32:                                               ; preds = %21, %28, %1, %31
  %.0 = phi ptr [ null, %31 ], [ null, %1 ], [ %2, %28 ], [ %2, %21 ]
  ret ptr %.0
}